; Function Attrs: mustprogress nofree norecurse nosync nounwind willreturn memory(argmem: write) uwtable
define void @_ZN7testing8internal25UntypedFunctionMockerBaseC2Ev(ptr noundef nonnull writeonly align 8 captures(none) dereferenceable(72) initializes((0, 72)) %0) unnamed_addr #16 align 2 {
  store ptr getelementptr inbounds nuw inrange(-16, 48) (i8, ptr @_ZTVN7testing8internal25UntypedFunctionMockerBaseE, i64 16), ptr %0, align 8, !tbaa !26
  %2 = getelementptr inbounds nuw i8, ptr %0, i64 8
  store ptr null, ptr %2, align 8, !tbaa !280
  %3 = getelementptr inbounds nuw i8, ptr %0, i64 16
  store ptr @.str.4, ptr %3, align 8, !tbaa !287
  %4 = getelementptr inbounds nuw i8, ptr %0, i64 24
  tail call void @llvm.memset.p0.i64(ptr noundef nonnull align 8 dereferenceable(48) %4, i8 0, i64 48, i1 false)
  ret void
}